; Function Attrs: mustprogress uwtable
define void @_ZN9grpc_core8channelz14SubchannelNode14SetChildSocketENS_13RefCountedPtrINS0_10SocketNodeEEE(ptr noundef nonnull align 8 dereferenceable(216) %this, ptr nocapture noundef %socket) local_unnamed_addr #3 align 2 personality ptr @__gxx_personality_v0 {
entry:
  %socket_mu_ = getelementptr inbounds i8, ptr %this, i64 72
  tail call void @_ZN4absl12lts_202308025Mutex4LockEv(ptr noundef nonnull align 8 dereferenceable(8) %socket_mu_)
  %child_socket_ = getelementptr inbounds i8, ptr %this, i64 80
  %0 = load ptr, ptr %socket, align 8
  store ptr null, ptr %socket, align 8
  %1 = load ptr, ptr %child_socket_, align 8
  store ptr %0, ptr %child_socket_, align 8
  %cmp.not.i.i = icmp eq ptr %1, null
  br i1 %cmp.not.i.i, label %_ZN9grpc_core13RefCountedPtrINS_8channelz10SocketNodeEEaSEOS3_.exit, label %if.then.i.i

if.then.i.i:                                      ; preds = %entry
  %refs_.i.i.i = getelementptr inbounds i8, ptr %1, i64 8
  %2 = atomicrmw sub ptr %refs_.i.i.i, i64 1 acq_rel, align 8
  %cmp.i.i.i.i = icmp eq i64 %2, 1
  br i1 %cmp.i.i.i.i, label %if.then.i.i.i, label %_ZN9grpc_core13RefCountedPtrINS_8channelz10SocketNodeEEaSEOS3_.exit

if.then.i.i.i:                                    ; preds = %if.then.i.i
  %vtable.i.i.i.i = load ptr, ptr %1, align 8
  %vfn.i.i.i.i = getelementptr inbounds i8, ptr %vtable.i.i.i.i, i64 8
  %3 = load ptr, ptr %vfn.i.i.i.i, align 8
  tail call void %3(ptr noundef nonnull align 8 dereferenceable(64) %1) #16
  br label %_ZN9grpc_core13RefCountedPtrINS_8channelz10SocketNodeEEaSEOS3_.exit

_ZN9grpc_core13RefCountedPtrINS_8channelz10SocketNodeEEaSEOS3_.exit: ; preds = %entry, %if.then.i.i, %if.then.i.i.i
  invoke void @_ZN4absl12lts_202308025Mutex6UnlockEv(ptr noundef nonnull align 8 dereferenceable(8) %socket_mu_)
          to label %_ZN4absl12lts_202308029MutexLockD2Ev.exit unwind label %terminate.lpad.i

terminate.lpad.i:                                 ; preds = %_ZN9grpc_core13RefCountedPtrINS_8channelz10SocketNodeEEaSEOS3_.exit
  %4 = landingpad { ptr, i32 }
          catch ptr null
  %5 = extractvalue { ptr, i32 } %4, 0
  tail call void @__clang_call_terminate(ptr %5) #18
  unreachable

_ZN4absl12lts_202308029MutexLockD2Ev.exit:        ; preds = %_ZN9grpc_core13RefCountedPtrINS_8channelz10SocketNodeEEaSEOS3_.exit
  ret void
}